; Function Attrs: mustprogress nofree norecurse nosync nounwind memory(read, argmem: readwrite, inaccessiblemem: none) uwtable
define noundef i32 @_ZN6icu_7711ICU_Utility17parseAsciiIntegerERKNS_13UnicodeStringERi(ptr noundef nonnull readonly align 8 captures(none) dereferenceable(64) %0, ptr noundef nonnull align 4 captures(none) dereferenceable(4) %1) local_unnamed_addr #11 align 2 {
  %3 = getelementptr inbounds nuw i8, ptr %0, i64 8
  %4 = getelementptr inbounds nuw i8, ptr %0, i64 12
  %5 = load i32, ptr %1, align 4, !tbaa !12
  %6 = load i16, ptr %3, align 8, !tbaa !21
  %7 = icmp slt i16 %6, 0
  %8 = ashr i16 %6, 5
  %9 = sext i16 %8 to i32
  %10 = load i32, ptr %4, align 4
  %11 = select i1 %7, i32 %10, i32 %9
  %12 = icmp slt i32 %5, %11
  %13 = icmp ult i32 %5, %11
  %or.cond1314 = and i1 %12, %13
  br i1 %or.cond1314, label %_ZNK6icu_7713UnicodeString6charAtEi.exit.lr.ph, label %.critedge

_ZNK6icu_7713UnicodeString6charAtEi.exit.lr.ph:   ; preds = %2
  %14 = getelementptr inbounds nuw i8, ptr %0, i64 10
  %15 = getelementptr inbounds nuw i8, ptr %0, i64 24
  %16 = sext i32 %5 to i64
  br label %_ZNK6icu_7713UnicodeString6charAtEi.exit

_ZNK6icu_7713UnicodeString6charAtEi.exit:         ; preds = %_ZNK6icu_7713UnicodeString6charAtEi.exit.lr.ph, %24
  %indvars.iv = phi i64 [ %16, %_ZNK6icu_7713UnicodeString6charAtEi.exit.lr.ph ], [ %indvars.iv.next, %24 ]
  %17 = phi i16 [ %6, %_ZNK6icu_7713UnicodeString6charAtEi.exit.lr.ph ], [ %30, %24 ]
  %.015 = phi i32 [ 0, %_ZNK6icu_7713UnicodeString6charAtEi.exit.lr.ph ], [ %28, %24 ]
  %18 = and i16 %17, 2
  %.not.i.i.i = icmp eq i16 %18, 0
  %19 = load ptr, ptr %15, align 8
  %20 = select i1 %.not.i.i.i, ptr %19, ptr %14
  %21 = getelementptr inbounds i16, ptr %20, i64 %indvars.iv
  %22 = load i16, ptr %21, align 2, !tbaa !15
  %23 = add i16 %22, -48
  %or.cond = icmp ult i16 %23, 10
  br i1 %or.cond, label %24, label %.critedge

24:                                               ; preds = %_ZNK6icu_7713UnicodeString6charAtEi.exit
  %25 = zext nneg i16 %22 to i32
  %26 = mul nsw i32 %.015, 10
  %27 = add i32 %26, -48
  %28 = add i32 %27, %25
  %indvars.iv.next = add nuw nsw i64 %indvars.iv, 1
  %29 = trunc nsw i64 %indvars.iv.next to i32
  store i32 %29, ptr %1, align 4, !tbaa !12
  %30 = load i16, ptr %3, align 8, !tbaa !21
  %31 = icmp slt i16 %30, 0
  %32 = ashr i16 %30, 5
  %33 = sext i16 %32 to i32
  %34 = load i32, ptr %4, align 4
  %35 = select i1 %31, i32 %34, i32 %33
  %36 = sext i32 %35 to i64
  %37 = icmp slt i64 %indvars.iv.next, %36
  %38 = icmp ugt i32 %35, %29
  %or.cond13 = and i1 %37, %38
  br i1 %or.cond13, label %_ZNK6icu_7713UnicodeString6charAtEi.exit, label %.critedge, !llvm.loop !25

.critedge:                                        ; preds = %24, %_ZNK6icu_7713UnicodeString6charAtEi.exit, %2
  %.0.lcssa = phi i32 [ 0, %2 ], [ %.015, %_ZNK6icu_7713UnicodeString6charAtEi.exit ], [ %28, %24 ]
  ret i32 %.0.lcssa
}